target datalayout = "e-m:e-p270:32:32-p271:32:32-p272:64:64-i64:64-i128:128-f80:128-n8:16:32:64-S128"
target triple = "x86_64-pc-linux-gnu"

%"class.nanobind::handle" = type { ptr }
%"class.std::__shared_count" = type { ptr }
%"class.std::_Sp_counted_base" = type { ptr, i32, i32 }
%"class.std::shared_ptr.486" = type { %"class.std::__shared_ptr.487" }
%"class.std::__shared_ptr.487" = type { ptr, %"class.std::__shared_count" }
%class.anon.491 = type { i8 }
%"class.std::_Sp_counted_ptr.493" = type { %"class.std::_Sp_counted_base", ptr }

; Function Attrs: mustprogress nounwind optsize uwtable
define linkonce_odr void @_ZNSt16_Sp_counted_baseILN9__gnu_cxx12_Lock_policyE2EEC2Ev(ptr noundef nonnull align 8 dereferenceable(16) %0) unnamed_addr #8 comdat align 2 {
  %2 = alloca ptr, align 8
  store ptr %0, ptr %2, align 8, !tbaa !252
  %3 = load ptr, ptr %2, align 8
  store ptr getelementptr inbounds inrange(-16, 40) ({ [7 x ptr] }, ptr @_ZTVSt16_Sp_counted_baseILN9__gnu_cxx12_Lock_policyE2EE, i32 0, i32 0, i32 2), ptr %3, align 8, !tbaa !10
  %4 = getelementptr inbounds nuw %"class.std::_Sp_counted_base", ptr %3, i32 0, i32 1
  store i32 1, ptr %4, align 8, !tbaa !257
  %5 = getelementptr inbounds nuw %"class.std::_Sp_counted_base", ptr %3, i32 0, i32 2
  store i32 1, ptr %5, align 4, !tbaa !259
  ret void
}

; Function Attrs: mustprogress nounwind optsize uwtable
define internal void @_ZNSt15_Sp_counted_ptrIPZL30nanobind_init_test_holders_extRN8nanobind7module_EE15AnotherSubclassLN9__gnu_cxx12_Lock_policyE2EEC2ES4_(ptr noundef nonnull align 8 dereferenceable(24) %0, ptr noundef %1) unnamed_addr #8 align 2 {
  %3 = alloca ptr, align 8
  %4 = alloca ptr, align 8
  store ptr %0, ptr %3, align 8, !tbaa !922
  store ptr %1, ptr %4, align 8, !tbaa !920
  %5 = load ptr, ptr %3, align 8
  call void @_ZNSt16_Sp_counted_baseILN9__gnu_cxx12_Lock_policyE2EEC2Ev(ptr noundef nonnull align 8 dereferenceable(16) %5) #21
  store ptr getelementptr inbounds inrange(-16, 40) ({ [7 x ptr] }, ptr @_ZTVSt15_Sp_counted_ptrIPZL30nanobind_init_test_holders_extRN8nanobind7module_EE15AnotherSubclassLN9__gnu_cxx12_Lock_policyE2EE, i32 0, i32 0, i32 2), ptr %5, align 8, !tbaa !10
  %6 = getelementptr inbounds nuw %"class.std::_Sp_counted_ptr.493", ptr %5, i32 0, i32 1
  %7 = load ptr, ptr %4, align 8, !tbaa !920
  store ptr %7, ptr %6, align 8, !tbaa !924
  ret void
}

; Function Attrs: mustprogress optsize uwtable
define internal void @_ZNSt14__shared_countILN9__gnu_cxx12_Lock_policyE2EEC2IPZL30nanobind_init_test_holders_extRN8nanobind7module_EE15AnotherSubclassEET_(ptr noundef nonnull align 8 dereferenceable(8) %0, ptr noundef %1) unnamed_addr #0 align 2 personality ptr @__gxx_personality_v0 {
  %3 = alloca ptr, align 8
  %4 = alloca ptr, align 8
  %5 = alloca ptr, align 8
  %6 = alloca i32, align 4
  store ptr %0, ptr %3, align 8, !tbaa !249
  store ptr %1, ptr %4, align 8, !tbaa !920
  %7 = load ptr, ptr %3, align 8
  %8 = getelementptr inbounds nuw %"class.std::__shared_count", ptr %7, i32 0, i32 0
  store ptr null, ptr %8, align 8, !tbaa !251
  %9 = invoke noalias noundef nonnull ptr @_Znwm(i64 noundef 24) #23
          to label %10 unwind label %13

10:                                               ; preds = %2
  %11 = load ptr, ptr %4, align 8, !tbaa !920
  call void @_ZNSt15_Sp_counted_ptrIPZL30nanobind_init_test_holders_extRN8nanobind7module_EE15AnotherSubclassLN9__gnu_cxx12_Lock_policyE2EEC2ES4_(ptr noundef nonnull align 8 dereferenceable(24) %9, ptr noundef %11) #21
  %12 = getelementptr inbounds nuw %"class.std::__shared_count", ptr %7, i32 0, i32 0
  store ptr %9, ptr %12, align 8, !tbaa !251
  br label %29

13:                                               ; preds = %2
  %14 = landingpad { ptr, i32 }
          catch ptr null
  %15 = extractvalue { ptr, i32 } %14, 0
  store ptr %15, ptr %5, align 8
  %16 = extractvalue { ptr, i32 } %14, 1
  store i32 %16, ptr %6, align 4
  br label %17

17:                                               ; preds = %13
  %18 = load ptr, ptr %5, align 8
  %19 = call ptr @__cxa_begin_catch(ptr %18) #20
  %20 = load ptr, ptr %4, align 8, !tbaa !920
  %21 = icmp eq ptr %20, null
  br i1 %21, label %23, label %22

22:                                               ; preds = %17
  call void @_ZdlPvm(ptr noundef %20, i64 noundef 1) #24
  br label %23

23:                                               ; preds = %22, %17
  invoke void @__cxa_rethrow() #26
          to label %38 unwind label %24

24:                                               ; preds = %23
  %25 = landingpad { ptr, i32 }
          cleanup
  %26 = extractvalue { ptr, i32 } %25, 0
  store ptr %26, ptr %5, align 8
  %27 = extractvalue { ptr, i32 } %25, 1
  store i32 %27, ptr %6, align 4
  invoke void @__cxa_end_catch()
          to label %28 unwind label %35

28:                                               ; preds = %24
  br label %30

29:                                               ; preds = %10
  ret void

30:                                               ; preds = %28
  %31 = load ptr, ptr %5, align 8
  %32 = load i32, ptr %6, align 4
  %33 = insertvalue { ptr, i32 } poison, ptr %31, 0
  %34 = insertvalue { ptr, i32 } %33, i32 %32, 1
  resume { ptr, i32 } %34

35:                                               ; preds = %24
  %36 = landingpad { ptr, i32 }
          catch ptr null
  %37 = extractvalue { ptr, i32 } %36, 0
  call void @__clang_call_terminate(ptr %37) #22
  unreachable

38:                                               ; preds = %23
  unreachable
}

; Function Attrs: mustprogress nounwind optsize uwtable
define internal void @_ZNSt12__shared_ptrIZL30nanobind_init_test_holders_extRN8nanobind7module_EE4BaseLN9__gnu_cxx12_Lock_policyE2EE31_M_enable_shared_from_this_withIZL30nanobind_init_test_holders_extS2_E15AnotherSubclassS8_EENSt9enable_ifIXntsr15__has_esft_baseIT0_EE5valueEvE4typeEPT_(ptr noundef nonnull align 8 dereferenceable(16) %0, ptr noundef %1) #8 align 2 {
  %3 = alloca ptr, align 8
  %4 = alloca ptr, align 8
  store ptr %0, ptr %3, align 8, !tbaa !908
  store ptr %1, ptr %4, align 8, !tbaa !920
  ret void
}

; Function Attrs: mustprogress optsize uwtable
define internal void @_ZNSt14__shared_countILN9__gnu_cxx12_Lock_policyE2EEC2IPZL30nanobind_init_test_holders_extRN8nanobind7module_EE15AnotherSubclassEET_St17integral_constantIbLb0EE(ptr noundef nonnull align 8 dereferenceable(8) %0, ptr noundef %1) unnamed_addr #0 align 2 {
  %3 = alloca ptr, align 8
  %4 = alloca ptr, align 8
  store ptr %0, ptr %3, align 8, !tbaa !249
  store ptr %1, ptr %4, align 8, !tbaa !920
  %5 = load ptr, ptr %3, align 8
  %6 = load ptr, ptr %4, align 8, !tbaa !920
  call void @_ZNSt14__shared_countILN9__gnu_cxx12_Lock_policyE2EEC2IPZL30nanobind_init_test_holders_extRN8nanobind7module_EE15AnotherSubclassEET_(ptr noundef nonnull align 8 dereferenceable(8) %5, ptr noundef %6) #19
  ret void
}

; Function Attrs: mustprogress optsize uwtable
define internal void @_ZNSt12__shared_ptrIZL30nanobind_init_test_holders_extRN8nanobind7module_EE4BaseLN9__gnu_cxx12_Lock_policyE2EEC2IZL30nanobind_init_test_holders_extS2_E15AnotherSubclassvEEPT_(ptr noundef nonnull align 8 dereferenceable(16) %0, ptr noundef %1) unnamed_addr #0 align 2 {
  %3 = alloca ptr, align 8
  %4 = alloca ptr, align 8
  store ptr %0, ptr %3, align 8, !tbaa !908
  store ptr %1, ptr %4, align 8, !tbaa !920
  %5 = load ptr, ptr %3, align 8
  %6 = getelementptr inbounds nuw %"class.std::__shared_ptr.487", ptr %5, i32 0, i32 0
  %7 = load ptr, ptr %4, align 8, !tbaa !920
  store ptr %7, ptr %6, align 8, !tbaa !910
  %8 = getelementptr inbounds nuw %"class.std::__shared_ptr.487", ptr %5, i32 0, i32 1
  %9 = load ptr, ptr %4, align 8, !tbaa !920
  call void @_ZNSt14__shared_countILN9__gnu_cxx12_Lock_policyE2EEC2IPZL30nanobind_init_test_holders_extRN8nanobind7module_EE15AnotherSubclassEET_St17integral_constantIbLb0EE(ptr noundef nonnull align 8 dereferenceable(8) %8, ptr noundef %9) #19
  %10 = load ptr, ptr %4, align 8, !tbaa !920
  call void @_ZNSt12__shared_ptrIZL30nanobind_init_test_holders_extRN8nanobind7module_EE4BaseLN9__gnu_cxx12_Lock_policyE2EE31_M_enable_shared_from_this_withIZL30nanobind_init_test_holders_extS2_E15AnotherSubclassS8_EENSt9enable_ifIXntsr15__has_esft_baseIT0_EE5valueEvE4typeEPT_(ptr noundef nonnull align 8 dereferenceable(16) %5, ptr noundef %10) #21
  ret void
}

; Function Attrs: mustprogress optsize uwtable
define internal void @_ZNSt10shared_ptrIZL30nanobind_init_test_holders_extRN8nanobind7module_EE4BaseEC2IZL30nanobind_init_test_holders_extS2_E15AnotherSubclassvEEPT_(ptr noundef nonnull align 8 dereferenceable(16) %0, ptr noundef %1) unnamed_addr #0 align 2 {
  %3 = alloca ptr, align 8
  %4 = alloca ptr, align 8
  store ptr %0, ptr %3, align 8, !tbaa !906
  store ptr %1, ptr %4, align 8, !tbaa !920
  %5 = load ptr, ptr %3, align 8
  %6 = load ptr, ptr %4, align 8, !tbaa !920
  call void @_ZNSt12__shared_ptrIZL30nanobind_init_test_holders_extRN8nanobind7module_EE4BaseLN9__gnu_cxx12_Lock_policyE2EEC2IZL30nanobind_init_test_holders_extS2_E15AnotherSubclassvEEPT_(ptr noundef nonnull align 8 dereferenceable(16) %5, ptr noundef %6) #19
  ret void
}

; Function Attrs: mustprogress nounwind optsize uwtable
define internal void @_ZNSt12__shared_ptrIZL30nanobind_init_test_holders_extRN8nanobind7module_EE4BaseLN9__gnu_cxx12_Lock_policyE2EED2Ev(ptr noundef nonnull align 8 dereferenceable(16) %0) unnamed_addr #8 align 2 {
  %2 = alloca ptr, align 8
  store ptr %0, ptr %2, align 8, !tbaa !908
  %3 = load ptr, ptr %2, align 8
  %4 = getelementptr inbounds nuw %"class.std::__shared_ptr.487", ptr %3, i32 0, i32 1
  call void @_ZNSt14__shared_countILN9__gnu_cxx12_Lock_policyE2EED2Ev(ptr noundef nonnull align 8 dereferenceable(8) %4) #21
  ret void
}

; Function Attrs: alwaysinline mustprogress nounwind optsize uwtable
define linkonce_odr hidden noundef ptr @_ZNK8nanobind6handle3ptrEv(ptr noundef nonnull align 8 dereferenceable(8) %0) #5 comdat align 2 {
  %2 = alloca ptr, align 8
  store ptr %0, ptr %2, align 8, !tbaa !12
  %3 = load ptr, ptr %2, align 8
  %4 = getelementptr inbounds nuw %"class.nanobind::handle", ptr %3, i32 0, i32 0
  %5 = load ptr, ptr %4, align 8, !tbaa !14
  ret ptr %5
}

; Function Attrs: inlinehint mustprogress optsize uwtable
define internal void @"_ZZL30nanobind_init_test_holders_extRN8nanobind7module_EENK4$_36clEv"(ptr dead_on_unwind noalias writable sret(%"class.std::shared_ptr.486") align 8 %0, ptr noundef nonnull align 1 dereferenceable(1) %1) #9 align 2 {
  %3 = alloca ptr, align 8
  %4 = alloca ptr, align 8
  store ptr %0, ptr %3, align 8
  store ptr %1, ptr %4, align 8, !tbaa !18
  %5 = call noalias noundef nonnull ptr @_Znwm(i64 noundef 1) #23
  call void @_ZNSt10shared_ptrIZL30nanobind_init_test_holders_extRN8nanobind7module_EE4BaseEC2IZL30nanobind_init_test_holders_extS2_E15AnotherSubclassvEEPT_(ptr noundef nonnull align 8 dereferenceable(16) %0, ptr noundef %5) #19
  ret void
}

; Function Attrs: alwaysinline mustprogress optsize uwtable
define internal noundef ptr @"_ZZN8nanobind6detail11func_createILb0ELb1EZL30nanobind_init_test_holders_extRNS_7module_EE4$_36St10shared_ptrIZL30nanobind_init_test_holders_extS3_E4BaseEJETpTnmJEJNS_5scopeENS_4nameEEEEP7_objectOT1_PFT2_DpT3_ESt16integer_sequenceImJXspT4_EEEDpRKT5_ENKUlPvPSB_PhNS_9rv_policyEPNS0_12cleanup_listEE_clESP_SQ_SR_SS_SU_"(ptr noundef nonnull align 1 dereferenceable(1) %0, ptr noundef %1, ptr noundef %2, ptr noundef %3, i32 noundef %4, ptr noundef %5) #3 align 2 {
  %7 = alloca ptr, align 8
  %8 = alloca ptr, align 8
  %9 = alloca ptr, align 8
  %10 = alloca ptr, align 8
  %11 = alloca i32, align 4
  %12 = alloca ptr, align 8
  %13 = alloca ptr, align 8
  %14 = alloca ptr, align 8
  %15 = alloca %"class.nanobind::handle", align 8
  %16 = alloca %"class.std::shared_ptr.486", align 8
  store ptr %0, ptr %7, align 8, !tbaa !18
  store ptr %1, ptr %8, align 8, !tbaa !18
  store ptr %2, ptr %9, align 8, !tbaa !188
  store ptr %3, ptr %10, align 8, !tbaa !34
  store i32 %4, ptr %11, align 4, !tbaa !20
  store ptr %5, ptr %12, align 8, !tbaa !190
  call void @llvm.lifetime.start.p0(i64 8, ptr %13) #20
  %17 = load ptr, ptr %8, align 8, !tbaa !18
  store ptr %17, ptr %13, align 8, !tbaa !918
  call void @llvm.lifetime.start.p0(i64 8, ptr %14) #20
  call void @llvm.lifetime.start.p0(i64 8, ptr %15) #20
  call void @llvm.lifetime.start.p0(i64 16, ptr %16) #20
  %18 = load ptr, ptr %13, align 8, !tbaa !918
  call void @"_ZZL30nanobind_init_test_holders_extRN8nanobind7module_EENK4$_36clEv"(ptr dead_on_unwind writable sret(%"class.std::shared_ptr.486") align 8 %16, ptr noundef nonnull align 1 dereferenceable(1) %18) #19
  %19 = load i32, ptr %11, align 4, !tbaa !20
  %20 = load ptr, ptr %12, align 8, !tbaa !190
  %21 = call ptr @_ZN8nanobind6detail11type_casterISt10shared_ptrIZL30nanobind_init_test_holders_extRNS_7module_EE4BaseEiE8from_cppERKS6_NS_9rv_policyEPNS0_12cleanup_listE(ptr noundef nonnull align 8 dereferenceable(16) %16, i32 noundef %19, ptr noundef %20) #21
  %22 = getelementptr inbounds nuw %"class.nanobind::handle", ptr %15, i32 0, i32 0
  store ptr %21, ptr %22, align 8
  %23 = call noundef ptr @_ZNK8nanobind6handle3ptrEv(ptr noundef nonnull align 8 dereferenceable(8) %15) #19
  store ptr %23, ptr %14, align 8, !tbaa !3
  call void @_ZNSt12__shared_ptrIZL30nanobind_init_test_holders_extRN8nanobind7module_EE4BaseLN9__gnu_cxx12_Lock_policyE2EED2Ev(ptr noundef nonnull align 8 dereferenceable(16) %16) #21
  call void @llvm.lifetime.end.p0(i64 16, ptr %16) #20
  call void @llvm.lifetime.end.p0(i64 8, ptr %15) #20
  %24 = load ptr, ptr %14, align 8, !tbaa !3
  call void @llvm.lifetime.end.p0(i64 8, ptr %14) #20
  call void @llvm.lifetime.end.p0(i64 8, ptr %13) #20
  ret ptr %24
}

; Function Attrs: inlinehint mustprogress optsize uwtable
define internal noundef ptr @"_ZZN8nanobind6detail11func_createILb0ELb1EZL30nanobind_init_test_holders_extRNS_7module_EE4$_36St10shared_ptrIZL30nanobind_init_test_holders_extS3_E4BaseEJETpTnmJEJNS_5scopeENS_4nameEEEEP7_objectOT1_PFT2_DpT3_ESt16integer_sequenceImJXspT4_EEEDpRKT5_ENUlPvPSB_PhNS_9rv_policyEPNS0_12cleanup_listEE_8__invokeESP_SQ_SR_SS_SU_"(ptr noundef %0, ptr noundef %1, ptr noundef %2, i32 noundef %3, ptr noundef %4) #9 align 2 {
  %6 = alloca ptr, align 8
  %7 = alloca ptr, align 8
  %8 = alloca ptr, align 8
  %9 = alloca i32, align 4
  %10 = alloca ptr, align 8
  %11 = alloca %class.anon.491, align 1
  store ptr %0, ptr %6, align 8, !tbaa !18
  store ptr %1, ptr %7, align 8, !tbaa !188
  store ptr %2, ptr %8, align 8, !tbaa !34
  store i32 %3, ptr %9, align 4, !tbaa !20
  store ptr %4, ptr %10, align 8, !tbaa !190
  %12 = load ptr, ptr %6, align 8, !tbaa !18
  %13 = load ptr, ptr %7, align 8, !tbaa !188
  %14 = load ptr, ptr %8, align 8, !tbaa !34
  %15 = load i32, ptr %9, align 4, !tbaa !20
  %16 = load ptr, ptr %10, align 8, !tbaa !190
  %17 = call noundef ptr @"_ZZN8nanobind6detail11func_createILb0ELb1EZL30nanobind_init_test_holders_extRNS_7module_EE4$_36St10shared_ptrIZL30nanobind_init_test_holders_extS3_E4BaseEJETpTnmJEJNS_5scopeENS_4nameEEEEP7_objectOT1_PFT2_DpT3_ESt16integer_sequenceImJXspT4_EEEDpRKT5_ENKUlPvPSB_PhNS_9rv_policyEPNS0_12cleanup_listEE_clESP_SQ_SR_SS_SU_"(ptr noundef nonnull align 1 dereferenceable(1) %11, ptr noundef %12, ptr noundef %13, ptr noundef %14, i32 noundef %15, ptr noundef %16) #19
  ret ptr %17
}